target datalayout = "e-m:e-p270:32:32-p271:32:32-p272:64:64-i64:64-i128:128-f80:128-n8:16:32:64-S128"
target triple = "x86_64-pc-linux-gnu"

%"class.std::__cxx11::basic_string" = type { %"struct.std::__cxx11::basic_string<char>::_Alloc_hider", i64, %union.anon }
%"struct.std::__cxx11::basic_string<char>::_Alloc_hider" = type { ptr }
%union.anon = type { i64, [8 x i8] }
%"class.std::allocator" = type { i8 }

@.str = private unnamed_addr constant [4 x i8] c"src\00", align 1
@.str.1 = private unnamed_addr constant [8 x i8] c"gromacs\00", align 1
@.str.2 = private unnamed_addr constant [9 x i8] c"programs\00", align 1
@.str.3 = private unnamed_addr constant [10 x i8] c"testutils\00", align 1
@_ZN12_GLOBAL__N_114cDirSeparatorsE = internal constant [3 x i8] c"/\\\00", align 1
@.str.4 = private unnamed_addr constant [50 x i8] c"basic_string: construction from null is not valid\00", align 1

; Function Attrs: mustprogress nounwind uwtable
define linkonce_odr noundef i64 @_ZNSt11char_traitsIcE6lengthEPKc(ptr noundef %0) #1 comdat align 2 {
  %2 = alloca ptr, align 8
  store ptr %0, ptr %2, align 8
  %3 = load ptr, ptr %2, align 8
  %4 = call i64 @strlen(ptr noundef %3) #13
  ret i64 %4
}

; Function Attrs: mustprogress nounwind uwtable
define linkonce_odr void @_ZNSt7__cxx1112basic_stringIcSt11char_traitsIcESaIcEE12_Alloc_hiderD2Ev(ptr noundef nonnull align 8 dereferenceable(8) %0) unnamed_addr #1 comdat align 2 {
  %2 = alloca ptr, align 8
  store ptr %0, ptr %2, align 8
  %3 = load ptr, ptr %2, align 8
  call void @_ZNSaIcED2Ev(ptr noundef nonnull align 1 dereferenceable(1) %3) #13
  ret void
}

; Function Attrs: mustprogress uwtable
define linkonce_odr void @_ZNSt7__cxx1112basic_stringIcSt11char_traitsIcESaIcEEC2IS3_EEPKcRKS3_(ptr noundef nonnull align 8 dereferenceable(32) %0, ptr noundef %1, ptr noundef nonnull align 1 dereferenceable(1) %2) unnamed_addr #0 comdat align 2 personality ptr @__gxx_personality_v0 {
  %4 = alloca ptr, align 8
  %5 = alloca ptr, align 8
  %6 = alloca ptr, align 8
  %7 = alloca ptr, align 8
  %8 = alloca i32, align 4
  %9 = alloca ptr, align 8
  store ptr %0, ptr %4, align 8
  store ptr %1, ptr %5, align 8
  store ptr %2, ptr %6, align 8
  %10 = load ptr, ptr %4, align 8
  %11 = getelementptr inbounds %"class.std::__cxx11::basic_string", ptr %10, i32 0, i32 0
  %12 = call noundef ptr @_ZNSt7__cxx1112basic_stringIcSt11char_traitsIcESaIcEE13_M_local_dataEv(ptr noundef nonnull align 8 dereferenceable(32) %10)
  %13 = load ptr, ptr %6, align 8
  call void @_ZNSt7__cxx1112basic_stringIcSt11char_traitsIcESaIcEE12_Alloc_hiderC1EPcRKS3_(ptr noundef nonnull align 8 dereferenceable(8) %11, ptr noundef %12, ptr noundef nonnull align 1 dereferenceable(1) %13)
  %14 = load ptr, ptr %5, align 8
  %15 = icmp eq ptr %14, null
  br i1 %15, label %16, label %22

16:                                               ; preds = %3
  invoke void @_ZSt19__throw_logic_errorPKc(ptr noundef @.str.4) #16
          to label %17 unwind label %18

17:                                               ; preds = %16
  unreachable

18:                                               ; preds = %26, %22, %16
  %19 = landingpad { ptr, i32 }
          cleanup
  %20 = extractvalue { ptr, i32 } %19, 0
  store ptr %20, ptr %7, align 8
  %21 = extractvalue { ptr, i32 } %19, 1
  store i32 %21, ptr %8, align 4
  call void @_ZNSt7__cxx1112basic_stringIcSt11char_traitsIcESaIcEE12_Alloc_hiderD2Ev(ptr noundef nonnull align 8 dereferenceable(8) %11) #13
  br label %31

22:                                               ; preds = %3
  %23 = load ptr, ptr %5, align 8
  %24 = load ptr, ptr %5, align 8
  %25 = invoke noundef i64 @_ZNSt11char_traitsIcE6lengthEPKc(ptr noundef %24)
          to label %26 unwind label %18

26:                                               ; preds = %22
  %27 = getelementptr inbounds i8, ptr %23, i64 %25
  store ptr %27, ptr %9, align 8
  %28 = load ptr, ptr %5, align 8
  %29 = load ptr, ptr %9, align 8
  invoke void @_ZNSt7__cxx1112basic_stringIcSt11char_traitsIcESaIcEE12_M_constructIPKcEEvT_S8_St20forward_iterator_tag(ptr noundef nonnull align 8 dereferenceable(32) %10, ptr noundef %28, ptr noundef %29)
          to label %30 unwind label %18

30:                                               ; preds = %26
  ret void

31:                                               ; preds = %18
  %32 = load ptr, ptr %7, align 8
  %33 = load i32, ptr %8, align 4
  %34 = insertvalue { ptr, i32 } poison, ptr %32, 0
  %35 = insertvalue { ptr, i32 } %34, i32 %33, 1
  resume { ptr, i32 } %35
}

; Function Attrs: mustprogress nounwind uwtable
define internal noundef zeroext i1 @_ZN12_GLOBAL__N_114isDirSeparatorEc(i8 noundef signext %0) #1 {
  %2 = alloca i8, align 1
  store i8 %0, ptr %2, align 1
  %3 = load i8, ptr %2, align 1
  %4 = sext i8 %3 to i32
  %5 = call noundef ptr @strchr(ptr noundef @_ZN12_GLOBAL__N_114cDirSeparatorsE, i32 noundef %4) #15
  %6 = icmp ne ptr %5, null
  ret i1 %6
}

; Function Attrs: mustprogress uwtable
define void @_ZN3gmx17stripSourcePrefixB5cxx11EPKc(ptr dead_on_unwind noalias writable sret(%"class.std::__cxx11::basic_string") align 8 %0, ptr noundef %1) #0 personality ptr @__gxx_personality_v0 {
  %3 = alloca ptr, align 8
  %4 = alloca ptr, align 8
  %5 = alloca ptr, align 8
  %6 = alloca ptr, align 8
  %7 = alloca i8, align 1
  %8 = alloca ptr, align 8
  %9 = alloca i64, align 8
  %10 = alloca %"class.std::allocator", align 1
  %11 = alloca ptr, align 8
  %12 = alloca i32, align 4
  %13 = alloca %"class.std::allocator", align 1
  %14 = alloca %"class.std::allocator", align 1
  store ptr %0, ptr %3, align 8
  store ptr %1, ptr %4, align 8
  %15 = load ptr, ptr %4, align 8
  store ptr %15, ptr %5, align 8
  %16 = load ptr, ptr %4, align 8
  %17 = load ptr, ptr %4, align 8
  %18 = call i64 @strlen(ptr noundef %17) #15
  %19 = getelementptr inbounds i8, ptr %16, i64 %18
  store ptr %19, ptr %6, align 8
  store i8 0, ptr %7, align 1
  br label %20

20:                                               ; preds = %97, %2
  %21 = load ptr, ptr %6, align 8
  %22 = load ptr, ptr %4, align 8
  %23 = icmp ugt ptr %21, %22
  br i1 %23, label %24, label %99

24:                                               ; preds = %20
  %25 = load ptr, ptr %6, align 8
  %26 = getelementptr inbounds i8, ptr %25, i64 -1
  store ptr %26, ptr %8, align 8
  br label %27

27:                                               ; preds = %38, %24
  %28 = load ptr, ptr %8, align 8
  %29 = load ptr, ptr %4, align 8
  %30 = icmp uge ptr %28, %29
  br i1 %30, label %31, label %36

31:                                               ; preds = %27
  %32 = load ptr, ptr %8, align 8
  %33 = load i8, ptr %32, align 1
  %34 = call noundef zeroext i1 @_ZN12_GLOBAL__N_114isDirSeparatorEc(i8 noundef signext %33)
  %35 = xor i1 %34, true
  br label %36

36:                                               ; preds = %31, %27
  %37 = phi i1 [ false, %27 ], [ %35, %31 ]
  br i1 %37, label %38, label %41

38:                                               ; preds = %36
  %39 = load ptr, ptr %8, align 8
  %40 = getelementptr inbounds i8, ptr %39, i32 -1
  store ptr %40, ptr %8, align 8
  br label %27, !llvm.loop !5

41:                                               ; preds = %36
  %42 = load ptr, ptr %6, align 8
  %43 = load ptr, ptr %8, align 8
  %44 = ptrtoint ptr %42 to i64
  %45 = ptrtoint ptr %43 to i64
  %46 = sub i64 %44, %45
  %47 = sub nsw i64 %46, 1
  store i64 %47, ptr %9, align 8
  %48 = load i8, ptr %7, align 1
  %49 = trunc i8 %48 to i1
  br i1 %49, label %50, label %71

50:                                               ; preds = %41
  %51 = load ptr, ptr %8, align 8
  %52 = getelementptr inbounds i8, ptr %51, i64 1
  %53 = load i64, ptr %9, align 8
  %54 = call i32 @strncmp(ptr noundef %52, ptr noundef @.str, i64 noundef %53) #15
  %55 = icmp eq i32 %54, 0
  br i1 %55, label %56, label %64

56:                                               ; preds = %50
  %57 = load ptr, ptr %8, align 8
  %58 = getelementptr inbounds i8, ptr %57, i64 1
  call void @_ZNSaIcEC1Ev(ptr noundef nonnull align 1 dereferenceable(1) %10) #13
  invoke void @_ZNSt7__cxx1112basic_stringIcSt11char_traitsIcESaIcEEC2IS3_EEPKcRKS3_(ptr noundef nonnull align 8 dereferenceable(32) %0, ptr noundef %58, ptr noundef nonnull align 1 dereferenceable(1) %10)
          to label %59 unwind label %60

59:                                               ; preds = %56
  call void @_ZNSaIcED1Ev(ptr noundef nonnull align 1 dereferenceable(1) %10) #13
  br label %106

60:                                               ; preds = %56
  %61 = landingpad { ptr, i32 }
          cleanup
  %62 = extractvalue { ptr, i32 } %61, 0
  store ptr %62, ptr %11, align 8
  %63 = extractvalue { ptr, i32 } %61, 1
  store i32 %63, ptr %12, align 4
  call void @_ZNSaIcED1Ev(ptr noundef nonnull align 1 dereferenceable(1) %10) #13
  br label %107

64:                                               ; preds = %50
  %65 = load ptr, ptr %5, align 8
  call void @_ZNSaIcEC1Ev(ptr noundef nonnull align 1 dereferenceable(1) %13) #13
  invoke void @_ZNSt7__cxx1112basic_stringIcSt11char_traitsIcESaIcEEC2IS3_EEPKcRKS3_(ptr noundef nonnull align 8 dereferenceable(32) %0, ptr noundef %65, ptr noundef nonnull align 1 dereferenceable(1) %13)
          to label %66 unwind label %67

66:                                               ; preds = %64
  call void @_ZNSaIcED1Ev(ptr noundef nonnull align 1 dereferenceable(1) %13) #13
  br label %106

67:                                               ; preds = %64
  %68 = landingpad { ptr, i32 }
          cleanup
  %69 = extractvalue { ptr, i32 } %68, 0
  store ptr %69, ptr %11, align 8
  %70 = extractvalue { ptr, i32 } %68, 1
  store i32 %70, ptr %12, align 4
  call void @_ZNSaIcED1Ev(ptr noundef nonnull align 1 dereferenceable(1) %13) #13
  br label %107

71:                                               ; preds = %41
  %72 = load ptr, ptr %8, align 8
  %73 = getelementptr inbounds i8, ptr %72, i64 1
  %74 = load i64, ptr %9, align 8
  %75 = call i32 @strncmp(ptr noundef %73, ptr noundef @.str.1, i64 noundef %74) #15
  %76 = icmp eq i32 %75, 0
  br i1 %76, label %89, label %77

77:                                               ; preds = %71
  %78 = load ptr, ptr %8, align 8
  %79 = getelementptr inbounds i8, ptr %78, i64 1
  %80 = load i64, ptr %9, align 8
  %81 = call i32 @strncmp(ptr noundef %79, ptr noundef @.str.2, i64 noundef %80) #15
  %82 = icmp eq i32 %81, 0
  br i1 %82, label %89, label %83

83:                                               ; preds = %77
  %84 = load ptr, ptr %8, align 8
  %85 = getelementptr inbounds i8, ptr %84, i64 1
  %86 = load i64, ptr %9, align 8
  %87 = call i32 @strncmp(ptr noundef %85, ptr noundef @.str.3, i64 noundef %86) #15
  %88 = icmp eq i32 %87, 0
  br i1 %88, label %89, label %90

89:                                               ; preds = %83, %77, %71
  store i8 1, ptr %7, align 1
  br label %90

90:                                               ; preds = %89, %83
  %91 = load ptr, ptr %5, align 8
  %92 = load ptr, ptr %4, align 8
  %93 = icmp eq ptr %91, %92
  br i1 %93, label %94, label %97

94:                                               ; preds = %90
  %95 = load ptr, ptr %8, align 8
  %96 = getelementptr inbounds i8, ptr %95, i64 1
  store ptr %96, ptr %5, align 8
  br label %97

97:                                               ; preds = %94, %90
  %98 = load ptr, ptr %8, align 8
  store ptr %98, ptr %6, align 8
  br label %20, !llvm.loop !7

99:                                               ; preds = %20
  %100 = load ptr, ptr %5, align 8
  call void @_ZNSaIcEC1Ev(ptr noundef nonnull align 1 dereferenceable(1) %14) #13
  invoke void @_ZNSt7__cxx1112basic_stringIcSt11char_traitsIcESaIcEEC2IS3_EEPKcRKS3_(ptr noundef nonnull align 8 dereferenceable(32) %0, ptr noundef %100, ptr noundef nonnull align 1 dereferenceable(1) %14)
          to label %101 unwind label %102

101:                                              ; preds = %99
  call void @_ZNSaIcED1Ev(ptr noundef nonnull align 1 dereferenceable(1) %14) #13
  br label %106

102:                                              ; preds = %99
  %103 = landingpad { ptr, i32 }
          cleanup
  %104 = extractvalue { ptr, i32 } %103, 0
  store ptr %104, ptr %11, align 8
  %105 = extractvalue { ptr, i32 } %103, 1
  store i32 %105, ptr %12, align 4
  call void @_ZNSaIcED1Ev(ptr noundef nonnull align 1 dereferenceable(1) %14) #13
  br label %107

106:                                              ; preds = %101, %66, %59
  ret void

107:                                              ; preds = %102, %67, %60
  %108 = load ptr, ptr %11, align 8
  %109 = load i32, ptr %12, align 4
  %110 = insertvalue { ptr, i32 } poison, ptr %108, 0
  %111 = insertvalue { ptr, i32 } %110, i32 %109, 1
  resume { ptr, i32 } %111
}