; Function Attrs: mustprogress uwtable
define void @_ZN3gmx17stripSourcePrefixB5cxx11EPKc(ptr dead_on_unwind noalias writable sret(%"class.std::__cxx11::basic_string") align 8 %0, ptr noundef %1) local_unnamed_addr #0 personality ptr @__gxx_personality_v0 {
  %3 = alloca %"class.std::allocator", align 1
  %4 = alloca %"class.std::allocator", align 1
  %5 = alloca %"class.std::allocator", align 1
  %6 = tail call i64 @strlen(ptr noundef nonnull dereferenceable(1) %1) #22
  %7 = icmp sgt i64 %6, 0
  br i1 %7, label %.preheader.preheader, label %._crit_edge

.preheader.preheader:                             ; preds = %2
  %8 = getelementptr inbounds i8, ptr %1, i64 %6
  br label %.preheader

.preheader:                                       ; preds = %.preheader.preheader, %50
  %.03052 = phi ptr [ %spec.select, %50 ], [ %1, %.preheader.preheader ]
  %.03251 = phi i1 [ %.133, %50 ], [ false, %.preheader.preheader ]
  %.03450 = phi ptr [ %.031, %50 ], [ %8, %.preheader.preheader ]
  br label %9

9:                                                ; preds = %.preheader, %10
  %.034.pn = phi ptr [ %.031, %10 ], [ %.03450, %.preheader ]
  %.031 = getelementptr inbounds i8, ptr %.034.pn, i64 -1
  %.not = icmp ult ptr %.031, %1
  br i1 %.not, label %.critedge, label %10

10:                                               ; preds = %9
  %11 = load i8, ptr %.031, align 1
  %12 = sext i8 %11 to i32
  %memchr.i = tail call ptr @memchr(ptr noundef nonnull dereferenceable(1) @_ZN12_GLOBAL__N_114cDirSeparatorsE, i32 %12, i64 3)
  %.not48 = icmp eq ptr %memchr.i, null
  br i1 %.not48, label %9, label %.critedge, !llvm.loop !32

.critedge:                                        ; preds = %9, %10
  %13 = ptrtoint ptr %.03450 to i64
  %14 = ptrtoint ptr %.031 to i64
  %15 = xor i64 %14, -1
  %16 = add i64 %15, %13
  br i1 %.03251, label %17, label %40

17:                                               ; preds = %.critedge
  %18 = tail call i32 @strncmp(ptr noundef nonnull %.034.pn, ptr noundef nonnull @.str, i64 noundef %16) #22
  %19 = icmp eq i32 %18, 0
  br i1 %19, label %20, label %28

20:                                               ; preds = %17
  call void @_ZNSaIcEC1Ev(ptr noundef nonnull align 1 dereferenceable(1) %3) #20
  %21 = invoke noundef ptr @_ZNSt7__cxx1112basic_stringIcSt11char_traitsIcESaIcEE13_M_local_dataEv(ptr noundef nonnull align 8 dereferenceable(32) %0)
          to label %.noexc unwind label %26

.noexc:                                           ; preds = %20
  invoke void @_ZNSt7__cxx1112basic_stringIcSt11char_traitsIcESaIcEE12_Alloc_hiderC1EPcRKS3_(ptr noundef nonnull align 8 dereferenceable(8) %0, ptr noundef %21, ptr noundef nonnull align 1 dereferenceable(1) %3)
          to label %.noexc37 unwind label %26

.noexc37:                                         ; preds = %.noexc
  %22 = call noundef i64 @strlen(ptr noundef nonnull dereferenceable(1) %.034.pn) #20
  %23 = getelementptr inbounds i8, ptr %.034.pn, i64 %22
  invoke void @_ZNSt7__cxx1112basic_stringIcSt11char_traitsIcESaIcEE12_M_constructIPKcEEvT_S8_St20forward_iterator_tag(ptr noundef nonnull align 8 dereferenceable(32) %0, ptr noundef nonnull %.034.pn, ptr noundef nonnull %23)
          to label %_ZNSt7__cxx1112basic_stringIcSt11char_traitsIcESaIcEEC2IS3_EEPKcRKS3_.exit unwind label %24

24:                                               ; preds = %.noexc37
  %25 = landingpad { ptr, i32 }
          cleanup
  call void @_ZNSaIcED2Ev(ptr noundef nonnull align 1 dereferenceable(1) %0) #20
  br label %.body

26:                                               ; preds = %.noexc, %20
  %27 = landingpad { ptr, i32 }
          cleanup
  br label %.body

28:                                               ; preds = %17
  call void @_ZNSaIcEC1Ev(ptr noundef nonnull align 1 dereferenceable(1) %4) #20
  %29 = invoke noundef ptr @_ZNSt7__cxx1112basic_stringIcSt11char_traitsIcESaIcEE13_M_local_dataEv(ptr noundef nonnull align 8 dereferenceable(32) %0)
          to label %.noexc38 unwind label %38

.noexc38:                                         ; preds = %28
  invoke void @_ZNSt7__cxx1112basic_stringIcSt11char_traitsIcESaIcEE12_Alloc_hiderC1EPcRKS3_(ptr noundef nonnull align 8 dereferenceable(8) %0, ptr noundef %29, ptr noundef nonnull align 1 dereferenceable(1) %4)
          to label %.noexc39 unwind label %38

.noexc39:                                         ; preds = %.noexc38
  %30 = icmp eq ptr %.03052, null
  br i1 %30, label %31, label %35

31:                                               ; preds = %.noexc39
  invoke void @_ZSt19__throw_logic_errorPKc(ptr noundef nonnull @.str.4) #23
          to label %32 unwind label %33

32:                                               ; preds = %31
  unreachable

33:                                               ; preds = %35, %31
  %34 = landingpad { ptr, i32 }
          cleanup
  call void @_ZNSaIcED2Ev(ptr noundef nonnull align 1 dereferenceable(1) %0) #20
  br label %.body

35:                                               ; preds = %.noexc39
  %36 = call noundef i64 @strlen(ptr noundef nonnull dereferenceable(1) %.03052) #20
  %37 = getelementptr inbounds i8, ptr %.03052, i64 %36
  invoke void @_ZNSt7__cxx1112basic_stringIcSt11char_traitsIcESaIcEE12_M_constructIPKcEEvT_S8_St20forward_iterator_tag(ptr noundef nonnull align 8 dereferenceable(32) %0, ptr noundef nonnull %.03052, ptr noundef nonnull %37)
          to label %_ZNSt7__cxx1112basic_stringIcSt11char_traitsIcESaIcEEC2IS3_EEPKcRKS3_.exit unwind label %33

38:                                               ; preds = %.noexc38, %28
  %39 = landingpad { ptr, i32 }
          cleanup
  br label %.body

40:                                               ; preds = %.critedge
  %41 = tail call i32 @strncmp(ptr noundef nonnull %.034.pn, ptr noundef nonnull @.str.1, i64 noundef %16) #22
  %42 = icmp eq i32 %41, 0
  br i1 %42, label %49, label %43

43:                                               ; preds = %40
  %44 = tail call i32 @strncmp(ptr noundef nonnull %.034.pn, ptr noundef nonnull @.str.2, i64 noundef %16) #22
  %45 = icmp eq i32 %44, 0
  br i1 %45, label %49, label %46

46:                                               ; preds = %43
  %47 = tail call i32 @strncmp(ptr noundef nonnull %.034.pn, ptr noundef nonnull @.str.3, i64 noundef %16) #22
  %48 = icmp eq i32 %47, 0
  br i1 %48, label %49, label %50

49:                                               ; preds = %46, %43, %40
  br label %50

50:                                               ; preds = %49, %46
  %.133 = phi i1 [ true, %49 ], [ false, %46 ]
  %51 = icmp eq ptr %.03052, %1
  %spec.select = select i1 %51, ptr %.034.pn, ptr %.03052
  %52 = icmp ugt ptr %.031, %1
  br i1 %52, label %.preheader, label %._crit_edge, !llvm.loop !34

._crit_edge:                                      ; preds = %50, %2
  %.030.lcssa = phi ptr [ %1, %2 ], [ %spec.select, %50 ]
  call void @_ZNSaIcEC1Ev(ptr noundef nonnull align 1 dereferenceable(1) %5) #20
  %53 = invoke noundef ptr @_ZNSt7__cxx1112basic_stringIcSt11char_traitsIcESaIcEE13_M_local_dataEv(ptr noundef nonnull align 8 dereferenceable(32) %0)
          to label %.noexc43 unwind label %62

.noexc43:                                         ; preds = %._crit_edge
  invoke void @_ZNSt7__cxx1112basic_stringIcSt11char_traitsIcESaIcEE12_Alloc_hiderC1EPcRKS3_(ptr noundef nonnull align 8 dereferenceable(8) %0, ptr noundef %53, ptr noundef nonnull align 1 dereferenceable(1) %5)
          to label %.noexc44 unwind label %62

.noexc44:                                         ; preds = %.noexc43
  %54 = icmp eq ptr %.030.lcssa, null
  br i1 %54, label %55, label %59

55:                                               ; preds = %.noexc44
  invoke void @_ZSt19__throw_logic_errorPKc(ptr noundef nonnull @.str.4) #23
          to label %56 unwind label %57

56:                                               ; preds = %55
  unreachable

57:                                               ; preds = %59, %55
  %58 = landingpad { ptr, i32 }
          cleanup
  call void @_ZNSaIcED2Ev(ptr noundef nonnull align 1 dereferenceable(1) %0) #20
  br label %.body

59:                                               ; preds = %.noexc44
  %60 = call noundef i64 @strlen(ptr noundef nonnull dereferenceable(1) %.030.lcssa) #20
  %61 = getelementptr inbounds i8, ptr %.030.lcssa, i64 %60
  invoke void @_ZNSt7__cxx1112basic_stringIcSt11char_traitsIcESaIcEE12_M_constructIPKcEEvT_S8_St20forward_iterator_tag(ptr noundef nonnull align 8 dereferenceable(32) %0, ptr noundef nonnull %.030.lcssa, ptr noundef nonnull %61)
          to label %_ZNSt7__cxx1112basic_stringIcSt11char_traitsIcESaIcEEC2IS3_EEPKcRKS3_.exit unwind label %57

62:                                               ; preds = %.noexc43, %._crit_edge
  %63 = landingpad { ptr, i32 }
          cleanup
  br label %.body

_ZNSt7__cxx1112basic_stringIcSt11char_traitsIcESaIcEEC2IS3_EEPKcRKS3_.exit: ; preds = %59, %35, %.noexc37
  %.sink = phi ptr [ %3, %.noexc37 ], [ %4, %35 ], [ %5, %59 ]
  call void @_ZNSaIcED1Ev(ptr noundef nonnull align 1 dereferenceable(1) %.sink) #20
  ret void

.body:                                            ; preds = %62, %57, %38, %33, %26, %24
  %.sink59 = phi ptr [ %3, %24 ], [ %3, %26 ], [ %4, %33 ], [ %4, %38 ], [ %5, %57 ], [ %5, %62 ]
  %.pn = phi { ptr, i32 } [ %25, %24 ], [ %27, %26 ], [ %34, %33 ], [ %39, %38 ], [ %58, %57 ], [ %63, %62 ]
  call void @_ZNSaIcED1Ev(ptr noundef nonnull align 1 dereferenceable(1) %.sink59) #20
  resume { ptr, i32 } %.pn
}